; Function Attrs: mustprogress uwtable
define internal void @"_ZN5folly6detail8function14FunctionTraitsIFvvEE9callSmallIZN8proxygen12WorkerThread9forceStopEvE3$_0EEvRNS1_4DataE"(ptr nocapture noundef nonnull readonly align 16 dereferenceable(48) %p) #0 align 2 personality ptr @__gxx_personality_v0 {
entry:
  %ref.tmp.i = alloca %"class.google::LogMessageFatal", align 8
  %p.val = load ptr, ptr %p, align 16
  call void @llvm.lifetime.start.p0(i64 96, ptr nonnull %ref.tmp.i)
  %state_.i = getelementptr inbounds i8, ptr %p.val, i64 8
  %0 = load i8, ptr %state_.i, align 8
  switch i8 %0, label %if.then7.i [
    i8 2, label %if.then.i
    i8 3, label %if.then.i
    i8 0, label %"_ZZN8proxygen12WorkerThread9forceStopEvENK3$_0clEv.exit"
  ]

if.then.i:                                        ; preds = %entry, %entry
  store i8 4, ptr %state_.i, align 8
  %eventBase_.i = getelementptr inbounds i8, ptr %p.val, i64 72
  %1 = load ptr, ptr %eventBase_.i, align 8
  tail call void @_ZN5folly9EventBase17terminateLoopSoonEv(ptr noundef nonnull align 16 dereferenceable(568) %1)
  br label %"_ZZN8proxygen12WorkerThread9forceStopEvENK3$_0clEv.exit"

if.then7.i:                                       ; preds = %entry
  call void @_ZN6google15LogMessageFatalC1EPKci(ptr noundef nonnull align 8 dereferenceable(96) %ref.tmp.i, ptr noundef nonnull @.str, i32 noundef 140)
  %call8.i = invoke noundef nonnull align 8 dereferenceable(8) ptr @_ZN6google10LogMessage6streamEv(ptr noundef nonnull align 8 dereferenceable(96) %ref.tmp.i)
          to label %invoke.cont.i unwind label %lpad.i

invoke.cont.i:                                    ; preds = %if.then7.i
  %call10.i = invoke noundef nonnull align 8 dereferenceable(8) ptr @_ZStlsISt11char_traitsIcEERSt13basic_ostreamIcT_ES5_PKc(ptr noundef nonnull align 8 dereferenceable(8) %call8.i, ptr noundef nonnull @.str.13)
          to label %invoke.cont9.i unwind label %lpad.i

invoke.cont9.i:                                   ; preds = %invoke.cont.i
  %2 = load i8, ptr %state_.i, align 8
  %conv.i = zext i8 %2 to i32
  %call13.i = invoke noundef nonnull align 8 dereferenceable(8) ptr @_ZNSolsEi(ptr noundef nonnull align 8 dereferenceable(8) %call10.i, i32 noundef %conv.i)
          to label %invoke.cont12.i unwind label %lpad.i

invoke.cont12.i:                                  ; preds = %invoke.cont9.i
  call void @_ZN6google15LogMessageFatalD1Ev(ptr noundef nonnull align 8 dereferenceable(96) %ref.tmp.i) #15
  unreachable

lpad.i:                                           ; preds = %invoke.cont9.i, %invoke.cont.i, %if.then7.i
  %3 = landingpad { ptr, i32 }
          cleanup
  call void @_ZN6google15LogMessageFatalD1Ev(ptr noundef nonnull align 8 dereferenceable(96) %ref.tmp.i) #15
  unreachable

"_ZZN8proxygen12WorkerThread9forceStopEvENK3$_0clEv.exit": ; preds = %entry, %if.then.i
  call void @llvm.lifetime.end.p0(i64 96, ptr nonnull %ref.tmp.i)
  ret void
}